target datalayout = "e-m:e-p270:32:32-p271:32:32-p272:64:64-i64:64-i128:128-f80:128-n8:16:32:64-S128"
target triple = "x86_64-pc-linux-gnu"

%"class.G1FreeRegionList::NodeInfo" = type <{ ptr, ptr, i32, [4 x i8] }>

@_ZN6G1NUMA5_instE = external global ptr, align 8

; Function Attrs: mustprogress nounwind uwtable
define linkonce_odr hidden noundef ptr @_ZN6G1NUMA4numaEv() #1 comdat align 2 {
  %1 = load ptr, ptr @_ZN6G1NUMA5_instE, align 8
  ret ptr %1
}

; Function Attrs: mustprogress nounwind uwtable
define hidden void @_ZN16G1FreeRegionList8NodeInfoC2Ev(ptr noundef nonnull align 8 dereferenceable(20) %0) unnamed_addr #1 align 2 {
  %2 = alloca ptr, align 8
  store ptr %0, ptr %2, align 8
  %3 = load ptr, ptr %2, align 8
  %4 = getelementptr inbounds %"class.G1FreeRegionList::NodeInfo", ptr %3, i32 0, i32 0
  %5 = call noundef ptr @_ZN6G1NUMA4numaEv()
  store ptr %5, ptr %4, align 8
  %6 = getelementptr inbounds %"class.G1FreeRegionList::NodeInfo", ptr %3, i32 0, i32 1
  store ptr null, ptr %6, align 8
  %7 = getelementptr inbounds %"class.G1FreeRegionList::NodeInfo", ptr %3, i32 0, i32 2
  %8 = getelementptr inbounds %"class.G1FreeRegionList::NodeInfo", ptr %3, i32 0, i32 0
  %9 = load ptr, ptr %8, align 8
  %10 = call noundef i32 @_ZNK6G1NUMA16num_active_nodesEv(ptr noundef nonnull align 8 dereferenceable(56) %9)
  store i32 %10, ptr %7, align 8
  %11 = getelementptr inbounds %"class.G1FreeRegionList::NodeInfo", ptr %3, i32 0, i32 2
  %12 = load i32, ptr %11, align 8
  %13 = zext i32 %12 to i64
  %14 = mul i64 %13, 4
  %15 = call noundef ptr @_Z12AllocateHeapm8MEMFLAGSN17AllocFailStrategy13AllocFailEnumE(i64 noundef %14, i8 noundef zeroext 5, i32 noundef 0)
  %16 = getelementptr inbounds %"class.G1FreeRegionList::NodeInfo", ptr %3, i32 0, i32 1
  store ptr %15, ptr %16, align 8
  ret void
}