; Function Attrs: mustprogress nounwind uwtable
define hidden void @_ZN16G1FreeRegionList8NodeInfoC2Ev(ptr nocapture noundef nonnull writeonly align 8 dereferenceable(20) %0) unnamed_addr #0 align 2 {
  %2 = load ptr, ptr @_ZN6G1NUMA5_instE, align 8
  store ptr %2, ptr %0, align 8
  %3 = getelementptr inbounds i8, ptr %0, i64 8
  store ptr null, ptr %3, align 8
  %4 = getelementptr inbounds i8, ptr %0, i64 16
  %5 = tail call noundef i32 @_ZNK6G1NUMA16num_active_nodesEv(ptr noundef nonnull align 8 dereferenceable(56) %2) #12
  store i32 %5, ptr %4, align 8
  %6 = zext i32 %5 to i64
  %7 = shl nuw nsw i64 %6, 2
  %8 = tail call noundef ptr @_Z12AllocateHeapm8MEMFLAGSN17AllocFailStrategy13AllocFailEnumE(i64 noundef %7, i8 noundef zeroext 5, i32 noundef 0) #12
  store ptr %8, ptr %3, align 8
  ret void
}